
_th02Init:

;th02.h,4 :: 		void th02Init(void)
;th02.h,6 :: 		I2C1_Init(100000);         // Initialize I2C communication
	MOVLW       50
	MOVWF       SSPADD+0 
	CALL        _I2C1_Init+0, 0
;th02.h,7 :: 		delay_ms(100);
	MOVLW       3
	MOVWF       R11, 0
	MOVLW       138
	MOVWF       R12, 0
	MOVLW       85
	MOVWF       R13, 0
L_th02Init0:
	DECFSZ      R13, 1, 1
	BRA         L_th02Init0
	DECFSZ      R12, 1, 1
	BRA         L_th02Init0
	DECFSZ      R11, 1, 1
	BRA         L_th02Init0
	NOP
	NOP
;th02.h,9 :: 		ADCON1=0x0F;               // PortB as digital
	MOVLW       15
	MOVWF       ADCON1+0 
;th02.h,10 :: 		INTCON2.RBPU=0;            // Pull-up resistors
	BCF         INTCON2+0, 7 
;th02.h,11 :: 		PORTB=0;                   // Clear PORTB
	CLRF        PORTB+0 
;th02.h,12 :: 		}
L_end_th02Init:
	RETURN      0
; end of _th02Init

_getTemperature:

;th02.h,14 :: 		float getTemperature(void)
;th02.h,19 :: 		I2C1_Start();
	CALL        _I2C1_Start+0, 0
;th02.h,20 :: 		I2C1_Wr(0x80);                // Address Device + Write
	MOVLW       128
	MOVWF       FARG_I2C1_Wr_data_+0 
	CALL        _I2C1_Wr+0, 0
;th02.h,21 :: 		I2C1_Wr(0x03);                // Address Pointer
	MOVLW       3
	MOVWF       FARG_I2C1_Wr_data_+0 
	CALL        _I2C1_Wr+0, 0
;th02.h,22 :: 		I2C1_Wr(0x11);                // Register Data
	MOVLW       17
	MOVWF       FARG_I2C1_Wr_data_+0 
	CALL        _I2C1_Wr+0, 0
;th02.h,23 :: 		I2C1_Stop();
	CALL        _I2C1_Stop+0, 0
;th02.h,25 :: 		delay_ms(80);                 // Conversion time (MAX = 40ms)
	MOVLW       3
	MOVWF       R11, 0
	MOVLW       8
	MOVWF       R12, 0
	MOVLW       119
	MOVWF       R13, 0
L_getTemperature1:
	DECFSZ      R13, 1, 1
	BRA         L_getTemperature1
	DECFSZ      R12, 1, 1
	BRA         L_getTemperature1
	DECFSZ      R11, 1, 1
	BRA         L_getTemperature1
;th02.h,27 :: 		I2C1_Start();
	CALL        _I2C1_Start+0, 0
;th02.h,28 :: 		I2C1_Wr(0x80);                // Address Device + Write
	MOVLW       128
	MOVWF       FARG_I2C1_Wr_data_+0 
	CALL        _I2C1_Wr+0, 0
;th02.h,29 :: 		I2C1_Wr(0x01);                // Address Pointer
	MOVLW       1
	MOVWF       FARG_I2C1_Wr_data_+0 
	CALL        _I2C1_Wr+0, 0
;th02.h,30 :: 		I2C1_Repeated_start();
	CALL        _I2C1_Repeated_Start+0, 0
;th02.h,31 :: 		I2C1_Wr(0x81);                // Address Device + Read
	MOVLW       129
	MOVWF       FARG_I2C1_Wr_data_+0 
	CALL        _I2C1_Wr+0, 0
;th02.h,32 :: 		buffer =  I2C1_Rd(1) << 8;
	MOVLW       1
	MOVWF       FARG_I2C1_Rd_ack+0 
	CALL        _I2C1_Rd+0, 0
	MOVF        R0, 0 
	MOVWF       getTemperature_buffer_L0+1 
	CLRF        getTemperature_buffer_L0+0 
;th02.h,33 :: 		buffer |=  I2C1_Rd(0);
	CLRF        FARG_I2C1_Rd_ack+0 
	CALL        _I2C1_Rd+0, 0
	MOVF        R0, 0 
	IORWF       getTemperature_buffer_L0+0, 1 
	MOVLW       0
	IORWF       getTemperature_buffer_L0+1, 1 
;th02.h,34 :: 		I2C1_Stop();
	CALL        _I2C1_Stop+0, 0
;th02.h,36 :: 		buffer >>= 2;                 // Equation from data sheet
	MOVF        getTemperature_buffer_L0+0, 0 
	MOVWF       R0 
	MOVF        getTemperature_buffer_L0+1, 0 
	MOVWF       R1 
	RRCF        R1, 1 
	RRCF        R0, 1 
	BCF         R1, 7 
	RRCF        R1, 1 
	RRCF        R0, 1 
	BCF         R1, 7 
	MOVF        R0, 0 
	MOVWF       getTemperature_buffer_L0+0 
	MOVF        R1, 0 
	MOVWF       getTemperature_buffer_L0+1 
;th02.h,37 :: 		temperature = buffer;
	CALL        _word2double+0, 0
;th02.h,38 :: 		temperature = (temperature/32)-50;
	MOVLW       0
	MOVWF       R4 
	MOVLW       0
	MOVWF       R5 
	MOVLW       0
	MOVWF       R6 
	MOVLW       132
	MOVWF       R7 
	CALL        _Div_32x32_FP+0, 0
	MOVLW       0
	MOVWF       R4 
	MOVLW       0
	MOVWF       R5 
	MOVLW       72
	MOVWF       R6 
	MOVLW       132
	MOVWF       R7 
	CALL        _Sub_32x32_FP+0, 0
;th02.h,40 :: 		return temperature;
;th02.h,41 :: 		}
L_end_getTemperature:
	RETURN      0
; end of _getTemperature

_getHumidity:

;th02.h,43 :: 		float getHumidity(void)
;th02.h,48 :: 		I2C1_Start();
	CALL        _I2C1_Start+0, 0
;th02.h,49 :: 		I2C1_Wr(0x80);                // Address Device + Write
	MOVLW       128
	MOVWF       FARG_I2C1_Wr_data_+0 
	CALL        _I2C1_Wr+0, 0
;th02.h,50 :: 		I2C1_Wr(0x03);                // Address Pointer
	MOVLW       3
	MOVWF       FARG_I2C1_Wr_data_+0 
	CALL        _I2C1_Wr+0, 0
;th02.h,51 :: 		I2C1_Wr(0x01);                // Register Data
	MOVLW       1
	MOVWF       FARG_I2C1_Wr_data_+0 
	CALL        _I2C1_Wr+0, 0
;th02.h,52 :: 		I2C1_Stop();
	CALL        _I2C1_Stop+0, 0
;th02.h,54 :: 		delay_ms(80);                 // Conversion time (MAX = 40ms)
	MOVLW       3
	MOVWF       R11, 0
	MOVLW       8
	MOVWF       R12, 0
	MOVLW       119
	MOVWF       R13, 0
L_getHumidity2:
	DECFSZ      R13, 1, 1
	BRA         L_getHumidity2
	DECFSZ      R12, 1, 1
	BRA         L_getHumidity2
	DECFSZ      R11, 1, 1
	BRA         L_getHumidity2
;th02.h,56 :: 		I2C1_Start();
	CALL        _I2C1_Start+0, 0
;th02.h,57 :: 		I2C1_Wr(0x80);                // Address Device + Write
	MOVLW       128
	MOVWF       FARG_I2C1_Wr_data_+0 
	CALL        _I2C1_Wr+0, 0
;th02.h,58 :: 		I2C1_Wr(0x01);                // Address Pointer
	MOVLW       1
	MOVWF       FARG_I2C1_Wr_data_+0 
	CALL        _I2C1_Wr+0, 0
;th02.h,59 :: 		I2C1_Repeated_start();
	CALL        _I2C1_Repeated_Start+0, 0
;th02.h,60 :: 		I2C1_Wr(0x81);                // Address Device + Read
	MOVLW       129
	MOVWF       FARG_I2C1_Wr_data_+0 
	CALL        _I2C1_Wr+0, 0
;th02.h,61 :: 		buffer =  I2C1_Rd(1) << 8;
	MOVLW       1
	MOVWF       FARG_I2C1_Rd_ack+0 
	CALL        _I2C1_Rd+0, 0
	MOVF        R0, 0 
	MOVWF       getHumidity_buffer_L0+1 
	CLRF        getHumidity_buffer_L0+0 
;th02.h,62 :: 		buffer |=  I2C1_Rd(0);
	CLRF        FARG_I2C1_Rd_ack+0 
	CALL        _I2C1_Rd+0, 0
	MOVF        R0, 0 
	IORWF       getHumidity_buffer_L0+0, 1 
	MOVLW       0
	IORWF       getHumidity_buffer_L0+1, 1 
;th02.h,63 :: 		I2C1_Stop();
	CALL        _I2C1_Stop+0, 0
;th02.h,65 :: 		buffer >>= 4;                 // Equation from data sheet
	MOVF        getHumidity_buffer_L0+0, 0 
	MOVWF       R1 
	MOVF        getHumidity_buffer_L0+1, 0 
	MOVWF       R2 
	RRCF        R2, 1 
	RRCF        R1, 1 
	BCF         R2, 7 
	RRCF        R2, 1 
	RRCF        R1, 1 
	BCF         R2, 7 
	RRCF        R2, 1 
	RRCF        R1, 1 
	BCF         R2, 7 
	RRCF        R2, 1 
	RRCF        R1, 1 
	BCF         R2, 7 
	MOVF        R1, 0 
	MOVWF       getHumidity_buffer_L0+0 
	MOVF        R2, 0 
	MOVWF       getHumidity_buffer_L0+1 
;th02.h,67 :: 		if(buffer>1984)
	MOVF        R2, 0 
	SUBLW       7
	BTFSS       STATUS+0, 2 
	GOTO        L__getHumidity19
	MOVF        R1, 0 
	SUBLW       192
L__getHumidity19:
	BTFSC       STATUS+0, 0 
	GOTO        L_getHumidity3
;th02.h,68 :: 		humidity = 1984;
	MOVLW       0
	MOVWF       getHumidity_humidity_L0+0 
	MOVLW       0
	MOVWF       getHumidity_humidity_L0+1 
	MOVLW       120
	MOVWF       getHumidity_humidity_L0+2 
	MOVLW       137
	MOVWF       getHumidity_humidity_L0+3 
	GOTO        L_getHumidity4
L_getHumidity3:
;th02.h,69 :: 		else if(buffer<384)
	MOVLW       1
	SUBWF       getHumidity_buffer_L0+1, 0 
	BTFSS       STATUS+0, 2 
	GOTO        L__getHumidity20
	MOVLW       128
	SUBWF       getHumidity_buffer_L0+0, 0 
L__getHumidity20:
	BTFSC       STATUS+0, 0 
	GOTO        L_getHumidity5
;th02.h,70 :: 		humidity = 384;
	MOVLW       0
	MOVWF       getHumidity_humidity_L0+0 
	MOVLW       0
	MOVWF       getHumidity_humidity_L0+1 
	MOVLW       64
	MOVWF       getHumidity_humidity_L0+2 
	MOVLW       135
	MOVWF       getHumidity_humidity_L0+3 
	GOTO        L_getHumidity6
L_getHumidity5:
;th02.h,72 :: 		humidity = buffer;
	MOVF        getHumidity_buffer_L0+0, 0 
	MOVWF       R0 
	MOVF        getHumidity_buffer_L0+1, 0 
	MOVWF       R1 
	CALL        _word2double+0, 0
	MOVF        R0, 0 
	MOVWF       getHumidity_humidity_L0+0 
	MOVF        R1, 0 
	MOVWF       getHumidity_humidity_L0+1 
	MOVF        R2, 0 
	MOVWF       getHumidity_humidity_L0+2 
	MOVF        R3, 0 
	MOVWF       getHumidity_humidity_L0+3 
L_getHumidity6:
L_getHumidity4:
;th02.h,75 :: 		return humidity;
	MOVF        getHumidity_humidity_L0+0, 0 
	MOVWF       R0 
	MOVF        getHumidity_humidity_L0+1, 0 
	MOVWF       R1 
	MOVF        getHumidity_humidity_L0+2, 0 
	MOVWF       R2 
	MOVF        getHumidity_humidity_L0+3, 0 
	MOVWF       R3 
;th02.h,76 :: 		}
L_end_getHumidity:
	RETURN      0
; end of _getHumidity

_main:

;g_SLEEP_1.c,147 :: 		void main()
;g_SLEEP_1.c,152 :: 		TRISD=0;
	CLRF        TRISD+0 
;g_SLEEP_1.c,154 :: 		TRISA=0;                         // Set PORTA.0 as output
	CLRF        TRISA+0 
;g_SLEEP_1.c,155 :: 		TRISB=1;                         // Set PORTB.0 as input
	MOVLW       1
	MOVWF       TRISB+0 
;g_SLEEP_1.c,156 :: 		OSCCON=0x00;                     //Internal osc. freq. 8MHz with IDLEN=0,  enabling IDLEN enables sleep mode    (72)
	CLRF        OSCCON+0 
;g_SLEEP_1.c,157 :: 		INTCON2=0x40;                    // INT0 rising edge interrupt selected
	MOVLW       64
	MOVWF       INTCON2+0 
;g_SLEEP_1.c,158 :: 		INTCON=0x00;                        //Clear INT0 interrupt flag
	CLRF        INTCON+0 
;g_SLEEP_1.c,159 :: 		INTCON=1;                        // Enable INTOIF interrupt
	MOVLW       1
	MOVWF       INTCON+0 
;g_SLEEP_1.c,160 :: 		INTCON=0b00010011;               // Enable global interrupt, High and Low, flag nad mismatch reading port b
	MOVLW       19
	MOVWF       INTCON+0 
;g_SLEEP_1.c,162 :: 		flag = 0;
	CLRF        _flag+0 
	CLRF        _flag+1 
;g_SLEEP_1.c,163 :: 		PORTA= 0b0000010;                     //Turn OFF led initially      PORTA0B1= 1;
	MOVLW       2
	MOVWF       PORTA+0 
;g_SLEEP_1.c,164 :: 		while(!flag)
L_main7:
	MOVF        _flag+0, 0 
	IORWF       _flag+1, 0 
	BTFSS       STATUS+0, 2 
	GOTO        L_main8
;g_SLEEP_1.c,166 :: 		LED = ~LED;                 // Blink LED continuously
	COMF        LATA+0, 1 
;g_SLEEP_1.c,167 :: 		delay_ms(300);
	MOVLW       8
	MOVWF       R11, 0
	MOVLW       157
	MOVWF       R12, 0
	MOVLW       5
	MOVWF       R13, 0
L_main9:
	DECFSZ      R13, 1, 1
	BRA         L_main9
	DECFSZ      R12, 1, 1
	BRA         L_main9
	DECFSZ      R11, 1, 1
	BRA         L_main9
	NOP
	NOP
;g_SLEEP_1.c,168 :: 		}
	GOTO        L_main7
L_main8:
;g_SLEEP_1.c,170 :: 		INTCON.TMR0IF=0;
	BCF         INTCON+0, 2 
;g_SLEEP_1.c,171 :: 		}
L_end_main:
	GOTO        $+0
; end of _main

_MSdelay:

;g_SLEEP_1.c,182 :: 		void MSdelay(unsigned int val)
;g_SLEEP_1.c,185 :: 		for(i=0;i<val;i++)
	CLRF        R1 
	CLRF        R2 
L_MSdelay10:
	MOVF        FARG_MSdelay_val+1, 0 
	SUBWF       R2, 0 
	BTFSS       STATUS+0, 2 
	GOTO        L__MSdelay23
	MOVF        FARG_MSdelay_val+0, 0 
	SUBWF       R1, 0 
L__MSdelay23:
	BTFSC       STATUS+0, 0 
	GOTO        L_MSdelay11
;g_SLEEP_1.c,186 :: 		for(j=0;j<165;j++);
	CLRF        R3 
	CLRF        R4 
L_MSdelay13:
	MOVLW       0
	SUBWF       R4, 0 
	BTFSS       STATUS+0, 2 
	GOTO        L__MSdelay24
	MOVLW       165
	SUBWF       R3, 0 
L__MSdelay24:
	BTFSC       STATUS+0, 0 
	GOTO        L_MSdelay14
	INFSNZ      R3, 1 
	INCF        R4, 1 
	GOTO        L_MSdelay13
L_MSdelay14:
;g_SLEEP_1.c,185 :: 		for(i=0;i<val;i++)
	INFSNZ      R1, 1 
	INCF        R2, 1 
;g_SLEEP_1.c,186 :: 		for(j=0;j<165;j++);
	GOTO        L_MSdelay10
L_MSdelay11:
;g_SLEEP_1.c,187 :: 		}
L_end_MSdelay:
	RETURN      0
; end of _MSdelay
